target datalayout = "e-m:e-p270:32:32-p271:32:32-p272:64:64-i64:64-i128:128-f80:128-n8:16:32:64-S128"
target triple = "x86_64-pc-linux-gnu"

%"class.cv::Mat" = type { i32, i32, i32, i32, ptr, ptr, ptr, ptr, ptr, ptr, %"struct.cv::MatSize", %"struct.cv::MatStep" }
%"struct.cv::MatSize" = type { ptr }
%"struct.cv::MatStep" = type { ptr, [2 x i64] }

; Function Attrs: inlinehint mustprogress nounwind uwtable
define linkonce_odr hidden noundef nonnull align 4 dereferenceable(4) ptr @_ZNK2cv7MatSizeixEi(ptr noundef nonnull align 8 dereferenceable(8) %0, i32 noundef %1) #6 comdat align 2 {
  %3 = alloca ptr, align 8
  %4 = alloca i32, align 4
  store ptr %0, ptr %3, align 8, !tbaa !65
  store i32 %1, ptr %4, align 4, !tbaa !26
  %5 = load ptr, ptr %3, align 8
  %6 = getelementptr inbounds nuw %"struct.cv::MatSize", ptr %5, i32 0, i32 0
  %7 = load ptr, ptr %6, align 8, !tbaa !67
  %8 = load i32, ptr %4, align 4, !tbaa !26
  %9 = sext i32 %8 to i64
  %10 = getelementptr inbounds i32, ptr %7, i64 %9
  ret ptr %10
}

; Function Attrs: mustprogress uwtable
define noundef i64 @_ZNK2cv3Mat5totalEv(ptr noundef nonnull align 8 dereferenceable(96) %0) #1 align 2 {
  %2 = alloca i64, align 8
  %3 = alloca ptr, align 8
  %4 = alloca i64, align 8
  %5 = alloca i32, align 4
  store ptr %0, ptr %3, align 8, !tbaa !34
  %6 = load ptr, ptr %3, align 8
  %7 = getelementptr inbounds nuw %"class.cv::Mat", ptr %6, i32 0, i32 1
  %8 = load i32, ptr %7, align 4, !tbaa !72
  %9 = icmp sle i32 %8, 2
  br i1 %9, label %10, label %18

10:                                               ; preds = %1
  %11 = getelementptr inbounds nuw %"class.cv::Mat", ptr %6, i32 0, i32 2
  %12 = load i32, ptr %11, align 8, !tbaa !78
  %13 = sext i32 %12 to i64
  %14 = getelementptr inbounds nuw %"class.cv::Mat", ptr %6, i32 0, i32 3
  %15 = load i32, ptr %14, align 4, !tbaa !77
  %16 = sext i32 %15 to i64
  %17 = mul i64 %13, %16
  store i64 %17, ptr %2, align 8
  br label %38

18:                                               ; preds = %1
  call void @llvm.lifetime.start.p0(i64 8, ptr %4) #7
  store i64 1, ptr %4, align 8, !tbaa !31
  call void @llvm.lifetime.start.p0(i64 4, ptr %5) #7
  store i32 0, ptr %5, align 4, !tbaa !26
  br label %19

19:                                               ; preds = %33, %18
  %20 = load i32, ptr %5, align 4, !tbaa !26
  %21 = getelementptr inbounds nuw %"class.cv::Mat", ptr %6, i32 0, i32 1
  %22 = load i32, ptr %21, align 4, !tbaa !72
  %23 = icmp slt i32 %20, %22
  br i1 %23, label %25, label %24

24:                                               ; preds = %19
  call void @llvm.lifetime.end.p0(i64 4, ptr %5) #7
  br label %36

25:                                               ; preds = %19
  %26 = getelementptr inbounds nuw %"class.cv::Mat", ptr %6, i32 0, i32 10
  %27 = load i32, ptr %5, align 4, !tbaa !26
  %28 = call noundef nonnull align 4 dereferenceable(4) ptr @_ZNK2cv7MatSizeixEi(ptr noundef nonnull align 8 dereferenceable(8) %26, i32 noundef %27)
  %29 = load i32, ptr %28, align 4, !tbaa !26
  %30 = sext i32 %29 to i64
  %31 = load i64, ptr %4, align 8, !tbaa !31
  %32 = mul i64 %31, %30
  store i64 %32, ptr %4, align 8, !tbaa !31
  br label %33

33:                                               ; preds = %25
  %34 = load i32, ptr %5, align 4, !tbaa !26
  %35 = add nsw i32 %34, 1
  store i32 %35, ptr %5, align 4, !tbaa !26
  br label %19, !llvm.loop !105

36:                                               ; preds = %24
  %37 = load i64, ptr %4, align 8, !tbaa !31
  store i64 %37, ptr %2, align 8
  call void @llvm.lifetime.end.p0(i64 8, ptr %4) #7
  br label %38

38:                                               ; preds = %36, %10
  %39 = load i64, ptr %2, align 8
  ret i64 %39
}

; Function Attrs: inlinehint mustprogress nounwind uwtable
define linkonce_odr hidden noundef i32 @_ZNK2cv3Mat8channelsEv(ptr noundef nonnull align 8 dereferenceable(96) %0) #6 comdat align 2 {
  %2 = alloca ptr, align 8
  store ptr %0, ptr %2, align 8, !tbaa !34
  %3 = load ptr, ptr %2, align 8
  %4 = getelementptr inbounds nuw %"class.cv::Mat", ptr %3, i32 0, i32 0
  %5 = load i32, ptr %4, align 8, !tbaa !79
  %6 = and i32 %5, 4088
  %7 = ashr i32 %6, 3
  %8 = add nsw i32 %7, 1
  ret i32 %8
}

; Function Attrs: inlinehint mustprogress nounwind uwtable
define linkonce_odr hidden noundef zeroext i1 @_ZNK2cv3Mat12isContinuousEv(ptr noundef nonnull align 8 dereferenceable(96) %0) #6 comdat align 2 {
  %2 = alloca ptr, align 8
  store ptr %0, ptr %2, align 8, !tbaa !34
  %3 = load ptr, ptr %2, align 8
  %4 = getelementptr inbounds nuw %"class.cv::Mat", ptr %3, i32 0, i32 0
  %5 = load i32, ptr %4, align 8, !tbaa !79
  %6 = and i32 %5, 16384
  %7 = icmp ne i32 %6, 0
  ret i1 %7
}

; Function Attrs: inlinehint mustprogress nounwind uwtable
define linkonce_odr hidden noundef i32 @_ZNK2cv3Mat5depthEv(ptr noundef nonnull align 8 dereferenceable(96) %0) #6 comdat align 2 {
  %2 = alloca ptr, align 8
  store ptr %0, ptr %2, align 8, !tbaa !34
  %3 = load ptr, ptr %2, align 8
  %4 = getelementptr inbounds nuw %"class.cv::Mat", ptr %3, i32 0, i32 0
  %5 = load i32, ptr %4, align 8, !tbaa !79
  %6 = and i32 %5, 7
  ret i32 %6
}

; Function Attrs: mustprogress uwtable
define noundef i32 @_ZNK2cv3Mat11checkVectorEiib(ptr noundef nonnull align 8 dereferenceable(96) %0, i32 noundef %1, i32 noundef %2, i1 noundef zeroext %3) #1 align 2 {
  %5 = alloca ptr, align 8
  %6 = alloca i32, align 4
  %7 = alloca i32, align 4
  %8 = alloca i8, align 1
  store ptr %0, ptr %5, align 8, !tbaa !34
  store i32 %1, ptr %6, align 4, !tbaa !26
  store i32 %2, ptr %7, align 4, !tbaa !26
  %9 = zext i1 %3 to i8
  store i8 %9, ptr %8, align 1, !tbaa !49
  %10 = load ptr, ptr %5, align 8
  %11 = getelementptr inbounds nuw %"class.cv::Mat", ptr %10, i32 0, i32 4
  %12 = load ptr, ptr %11, align 8, !tbaa !89
  %13 = icmp ne ptr %12, null
  br i1 %13, label %14, label %109

14:                                               ; preds = %4
  %15 = call noundef i32 @_ZNK2cv3Mat5depthEv(ptr noundef nonnull align 8 dereferenceable(96) %10)
  %16 = load i32, ptr %7, align 4, !tbaa !26
  %17 = icmp eq i32 %15, %16
  br i1 %17, label %21, label %18

18:                                               ; preds = %14
  %19 = load i32, ptr %7, align 4, !tbaa !26
  %20 = icmp sle i32 %19, 0
  br i1 %20, label %21, label %109

21:                                               ; preds = %18, %14
  %22 = call noundef zeroext i1 @_ZNK2cv3Mat12isContinuousEv(ptr noundef nonnull align 8 dereferenceable(96) %10)
  br i1 %22, label %26, label %23

23:                                               ; preds = %21
  %24 = load i8, ptr %8, align 1, !tbaa !49, !range !80, !noundef !81
  %25 = trunc i8 %24 to i1
  br i1 %25, label %109, label %26

26:                                               ; preds = %23, %21
  %27 = getelementptr inbounds nuw %"class.cv::Mat", ptr %10, i32 0, i32 1
  %28 = load i32, ptr %27, align 4, !tbaa !72
  %29 = icmp eq i32 %28, 2
  br i1 %29, label %30, label %50

30:                                               ; preds = %26
  %31 = getelementptr inbounds nuw %"class.cv::Mat", ptr %10, i32 0, i32 2
  %32 = load i32, ptr %31, align 8, !tbaa !78
  %33 = icmp eq i32 %32, 1
  br i1 %33, label %38, label %34

34:                                               ; preds = %30
  %35 = getelementptr inbounds nuw %"class.cv::Mat", ptr %10, i32 0, i32 3
  %36 = load i32, ptr %35, align 4, !tbaa !77
  %37 = icmp eq i32 %36, 1
  br i1 %37, label %38, label %42

38:                                               ; preds = %34, %30
  %39 = call noundef i32 @_ZNK2cv3Mat8channelsEv(ptr noundef nonnull align 8 dereferenceable(96) %10)
  %40 = load i32, ptr %6, align 4, !tbaa !26
  %41 = icmp eq i32 %39, %40
  br i1 %41, label %100, label %42

42:                                               ; preds = %38, %34
  %43 = getelementptr inbounds nuw %"class.cv::Mat", ptr %10, i32 0, i32 3
  %44 = load i32, ptr %43, align 4, !tbaa !77
  %45 = load i32, ptr %6, align 4, !tbaa !26
  %46 = icmp eq i32 %44, %45
  br i1 %46, label %47, label %50

47:                                               ; preds = %42
  %48 = call noundef i32 @_ZNK2cv3Mat8channelsEv(ptr noundef nonnull align 8 dereferenceable(96) %10)
  %49 = icmp eq i32 %48, 1
  br i1 %49, label %100, label %50

50:                                               ; preds = %47, %42, %26
  %51 = getelementptr inbounds nuw %"class.cv::Mat", ptr %10, i32 0, i32 1
  %52 = load i32, ptr %51, align 4, !tbaa !72
  %53 = icmp eq i32 %52, 3
  br i1 %53, label %54, label %109

54:                                               ; preds = %50
  %55 = call noundef i32 @_ZNK2cv3Mat8channelsEv(ptr noundef nonnull align 8 dereferenceable(96) %10)
  %56 = icmp eq i32 %55, 1
  br i1 %56, label %57, label %109

57:                                               ; preds = %54
  %58 = getelementptr inbounds nuw %"class.cv::Mat", ptr %10, i32 0, i32 10
  %59 = getelementptr inbounds nuw %"struct.cv::MatSize", ptr %58, i32 0, i32 0
  %60 = load ptr, ptr %59, align 8, !tbaa !76
  %61 = getelementptr inbounds i32, ptr %60, i64 2
  %62 = load i32, ptr %61, align 4, !tbaa !26
  %63 = load i32, ptr %6, align 4, !tbaa !26
  %64 = icmp eq i32 %62, %63
  br i1 %64, label %65, label %109

65:                                               ; preds = %57
  %66 = getelementptr inbounds nuw %"class.cv::Mat", ptr %10, i32 0, i32 10
  %67 = getelementptr inbounds nuw %"struct.cv::MatSize", ptr %66, i32 0, i32 0
  %68 = load ptr, ptr %67, align 8, !tbaa !76
  %69 = getelementptr inbounds i32, ptr %68, i64 0
  %70 = load i32, ptr %69, align 4, !tbaa !26
  %71 = icmp eq i32 %70, 1
  br i1 %71, label %79, label %72

72:                                               ; preds = %65
  %73 = getelementptr inbounds nuw %"class.cv::Mat", ptr %10, i32 0, i32 10
  %74 = getelementptr inbounds nuw %"struct.cv::MatSize", ptr %73, i32 0, i32 0
  %75 = load ptr, ptr %74, align 8, !tbaa !76
  %76 = getelementptr inbounds i32, ptr %75, i64 1
  %77 = load i32, ptr %76, align 4, !tbaa !26
  %78 = icmp eq i32 %77, 1
  br i1 %78, label %79, label %109

79:                                               ; preds = %72, %65
  %80 = call noundef zeroext i1 @_ZNK2cv3Mat12isContinuousEv(ptr noundef nonnull align 8 dereferenceable(96) %10)
  br i1 %80, label %100, label %81

81:                                               ; preds = %79
  %82 = getelementptr inbounds nuw %"class.cv::Mat", ptr %10, i32 0, i32 11
  %83 = getelementptr inbounds nuw %"struct.cv::MatStep", ptr %82, i32 0, i32 0
  %84 = load ptr, ptr %83, align 8, !tbaa !75
  %85 = getelementptr inbounds i64, ptr %84, i64 1
  %86 = load i64, ptr %85, align 8, !tbaa !31
  %87 = getelementptr inbounds nuw %"class.cv::Mat", ptr %10, i32 0, i32 11
  %88 = getelementptr inbounds nuw %"struct.cv::MatStep", ptr %87, i32 0, i32 0
  %89 = load ptr, ptr %88, align 8, !tbaa !75
  %90 = getelementptr inbounds i64, ptr %89, i64 2
  %91 = load i64, ptr %90, align 8, !tbaa !31
  %92 = getelementptr inbounds nuw %"class.cv::Mat", ptr %10, i32 0, i32 10
  %93 = getelementptr inbounds nuw %"struct.cv::MatSize", ptr %92, i32 0, i32 0
  %94 = load ptr, ptr %93, align 8, !tbaa !76
  %95 = getelementptr inbounds i32, ptr %94, i64 2
  %96 = load i32, ptr %95, align 4, !tbaa !26
  %97 = sext i32 %96 to i64
  %98 = mul i64 %91, %97
  %99 = icmp eq i64 %86, %98
  br i1 %99, label %100, label %109

100:                                              ; preds = %81, %79, %47, %38
  %101 = call noundef i64 @_ZNK2cv3Mat5totalEv(ptr noundef nonnull align 8 dereferenceable(96) %10)
  %102 = call noundef i32 @_ZNK2cv3Mat8channelsEv(ptr noundef nonnull align 8 dereferenceable(96) %10)
  %103 = sext i32 %102 to i64
  %104 = mul i64 %101, %103
  %105 = load i32, ptr %6, align 4, !tbaa !26
  %106 = sext i32 %105 to i64
  %107 = udiv i64 %104, %106
  %108 = trunc i64 %107 to i32
  br label %110

109:                                              ; preds = %81, %72, %57, %54, %50, %23, %18, %4
  br label %110

110:                                              ; preds = %109, %100
  %111 = phi i32 [ %108, %100 ], [ -1, %109 ]
  ret i32 %111
}