; Function Attrs: mustprogress nofree norecurse nosync nounwind willreturn memory(read, inaccessiblemem: none) uwtable
define noundef i32 @_ZNK2cv3Mat11checkVectorEiib(ptr noundef nonnull readonly align 8 captures(none) dereferenceable(96) %0, i32 noundef %1, i32 noundef %2, i1 noundef zeroext %3) local_unnamed_addr #13 align 2 {
  %5 = getelementptr inbounds nuw i8, ptr %0, i64 16
  %6 = load ptr, ptr %5, align 8, !tbaa !67
  %.not = icmp eq ptr %6, null
  br i1 %.not, label %.thread, label %7

7:                                                ; preds = %4
  %8 = load i32, ptr %0, align 8, !tbaa !61
  %9 = and i32 %8, 7
  %10 = icmp eq i32 %9, %2
  %11 = icmp slt i32 %2, 1
  %or.cond = or i1 %11, %10
  br i1 %or.cond, label %12, label %.thread

12:                                               ; preds = %7
  %13 = and i32 %8, 16384
  %14 = icmp eq i32 %13, 0
  %brmerge.not = and i1 %3, %14
  br i1 %brmerge.not, label %.thread, label %15

15:                                               ; preds = %12
  %16 = getelementptr inbounds nuw i8, ptr %0, i64 4
  %17 = load i32, ptr %16, align 4, !tbaa !53
  switch i32 %17, label %.thread [
    i32 2, label %18
    i32 3, label %34
  ]

18:                                               ; preds = %15
  %19 = getelementptr inbounds nuw i8, ptr %0, i64 8
  %20 = load i32, ptr %19, align 8, !tbaa !60
  %21 = icmp eq i32 %20, 1
  %22 = getelementptr inbounds nuw i8, ptr %0, i64 12
  %23 = load i32, ptr %22, align 4
  %24 = icmp eq i32 %23, 1
  %or.cond11 = select i1 %21, i1 true, i1 %24
  br i1 %or.cond11, label %25, label %30

25:                                               ; preds = %18
  %26 = lshr i32 %8, 3
  %27 = and i32 %26, 511
  %28 = add nuw nsw i32 %27, 1
  %29 = icmp eq i32 %28, %1
  br i1 %29, label %61, label %30

30:                                               ; preds = %18, %25
  %31 = icmp eq i32 %23, %1
  %32 = and i32 %8, 4088
  %33 = icmp eq i32 %32, 0
  %or.cond16 = and i1 %33, %31
  br i1 %or.cond16, label %61, label %.thread

34:                                               ; preds = %15
  %35 = and i32 %8, 4088
  %36 = icmp eq i32 %35, 0
  br i1 %36, label %37, label %.thread

37:                                               ; preds = %34
  %38 = getelementptr inbounds nuw i8, ptr %0, i64 64
  %39 = load ptr, ptr %38, align 8, !tbaa !58
  %40 = getelementptr inbounds nuw i8, ptr %39, i64 8
  %41 = load i32, ptr %40, align 4, !tbaa !23
  %42 = icmp eq i32 %41, %1
  br i1 %42, label %43, label %.thread

43:                                               ; preds = %37
  %44 = load i32, ptr %39, align 4, !tbaa !23
  %45 = icmp eq i32 %44, 1
  br i1 %45, label %50, label %46

46:                                               ; preds = %43
  %47 = getelementptr inbounds nuw i8, ptr %39, i64 4
  %48 = load i32, ptr %47, align 4, !tbaa !23
  %49 = icmp eq i32 %48, 1
  br i1 %49, label %50, label %.thread

50:                                               ; preds = %46, %43
  br i1 %14, label %51, label %.preheader.i.preheader

51:                                               ; preds = %50
  %52 = getelementptr inbounds nuw i8, ptr %0, i64 72
  %53 = load ptr, ptr %52, align 8, !tbaa !57
  %54 = getelementptr inbounds nuw i8, ptr %53, i64 8
  %55 = load i64, ptr %54, align 8, !tbaa !22
  %56 = getelementptr inbounds nuw i8, ptr %53, i64 16
  %57 = load i64, ptr %56, align 8, !tbaa !22
  %58 = sext i32 %1 to i64
  %59 = mul i64 %57, %58
  %60 = icmp eq i64 %55, %59
  br i1 %60, label %.preheader.i.preheader, label %.thread

.preheader.i.preheader:                           ; preds = %50, %51
  br label %.preheader.i

61:                                               ; preds = %30, %25
  %62 = sext i32 %20 to i64
  %63 = sext i32 %23 to i64
  %64 = mul nsw i64 %63, %62
  br label %_ZNK2cv3Mat5totalEv.exit

.preheader.i:                                     ; preds = %.preheader.i.preheader, %.preheader.i
  %indvars.iv.i = phi i64 [ %indvars.iv.next.i, %.preheader.i ], [ 0, %.preheader.i.preheader ]
  %.068.i = phi i64 [ %68, %.preheader.i ], [ 1, %.preheader.i.preheader ]
  %65 = getelementptr inbounds nuw i32, ptr %39, i64 %indvars.iv.i
  %66 = load i32, ptr %65, align 4, !tbaa !23
  %67 = sext i32 %66 to i64
  %68 = mul i64 %.068.i, %67
  %indvars.iv.next.i = add nuw nsw i64 %indvars.iv.i, 1
  %exitcond.not.i = icmp eq i64 %indvars.iv.next.i, 3
  br i1 %exitcond.not.i, label %_ZNK2cv3Mat5totalEv.exit, label %.preheader.i, !llvm.loop !73

_ZNK2cv3Mat5totalEv.exit:                         ; preds = %.preheader.i, %61
  %.07.i = phi i64 [ %64, %61 ], [ %68, %.preheader.i ]
  %69 = lshr i32 %8, 3
  %70 = and i32 %69, 511
  %71 = add nuw nsw i32 %70, 1
  %72 = zext nneg i32 %71 to i64
  %73 = mul i64 %.07.i, %72
  %74 = sext i32 %1 to i64
  %75 = udiv i64 %73, %74
  %76 = trunc i64 %75 to i32
  br label %.thread

.thread:                                          ; preds = %15, %30, %12, %4, %34, %37, %46, %51, %7, %_ZNK2cv3Mat5totalEv.exit
  %77 = phi i32 [ %76, %_ZNK2cv3Mat5totalEv.exit ], [ -1, %7 ], [ -1, %51 ], [ -1, %46 ], [ -1, %37 ], [ -1, %34 ], [ -1, %4 ], [ -1, %12 ], [ -1, %30 ], [ -1, %15 ]
  ret i32 %77
}